target datalayout = "e-m:e-p270:32:32-p271:32:32-p272:64:64-i64:64-i128:128-f80:128-n8:16:32:64-S128"
target triple = "x86_64-pc-linux-gnu"

%"struct.llvm::LaneBitmask" = type { i64 }
%"struct.llvm::MaskRolOp" = type <{ %"struct.llvm::LaneBitmask", i8, [7 x i8] }>

@_ZN4llvmL18CompositeSequencesE = internal constant [52 x i8] c"\00\00\02\04\06\08\0A\0C\0E\10\12\14\00\04\08\0C\00\08\00\00\00\02\02\04\00\00\00\00\02\02\02\02\04\04\04\04\06\06\06\06\08\08\08\0A\0A\0C\00\00\00\04\04\08", align 16

; Function Attrs: mustprogress nounwind uwtable
define linkonce_odr hidden noundef nonnull align 8 dereferenceable(8) ptr @_ZN4llvm11LaneBitmaskoRES0_(ptr noundef nonnull align 8 dereferenceable(8) %0, i64 %1) #0 comdat align 2 {
  %3 = alloca %"struct.llvm::LaneBitmask", align 8
  %4 = alloca ptr, align 8
  %5 = getelementptr inbounds nuw %"struct.llvm::LaneBitmask", ptr %3, i32 0, i32 0
  store i64 %1, ptr %5, align 8
  store ptr %0, ptr %4, align 8
  %6 = load ptr, ptr %4, align 8
  %7 = getelementptr inbounds nuw %"struct.llvm::LaneBitmask", ptr %3, i32 0, i32 0
  %8 = load i64, ptr %7, align 8
  %9 = getelementptr inbounds nuw %"struct.llvm::LaneBitmask", ptr %6, i32 0, i32 0
  %10 = load i64, ptr %9, align 8
  %11 = or i64 %10, %8
  store i64 %11, ptr %9, align 8
  ret ptr %6
}

; Function Attrs: mustprogress nounwind uwtable
define linkonce_odr hidden void @_ZN4llvm11LaneBitmaskC2Em(ptr noundef nonnull align 8 dereferenceable(8) %0, i64 noundef %1) unnamed_addr #0 comdat align 2 {
  %3 = alloca ptr, align 8
  %4 = alloca i64, align 8
  store ptr %0, ptr %3, align 8
  store i64 %1, ptr %4, align 8
  %5 = load ptr, ptr %3, align 8
  %6 = getelementptr inbounds nuw %"struct.llvm::LaneBitmask", ptr %5, i32 0, i32 0
  %7 = load i64, ptr %4, align 8
  store i64 %7, ptr %6, align 8
  ret void
}

; Function Attrs: mustprogress nounwind uwtable
define linkonce_odr hidden noundef i64 @_ZNK4llvm11LaneBitmask12getAsIntegerEv(ptr noundef nonnull align 8 dereferenceable(8) %0) #0 comdat align 2 {
  %2 = alloca ptr, align 8
  store ptr %0, ptr %2, align 8
  %3 = load ptr, ptr %2, align 8
  %4 = getelementptr inbounds nuw %"struct.llvm::LaneBitmask", ptr %3, i32 0, i32 0
  %5 = load i64, ptr %4, align 8
  ret i64 %5
}

; Function Attrs: mustprogress nounwind uwtable
define linkonce_odr hidden noundef zeroext i1 @_ZNK4llvm11LaneBitmask3anyEv(ptr noundef nonnull align 8 dereferenceable(8) %0) #0 comdat align 2 {
  %2 = alloca ptr, align 8
  store ptr %0, ptr %2, align 8
  %3 = load ptr, ptr %2, align 8
  %4 = getelementptr inbounds nuw %"struct.llvm::LaneBitmask", ptr %3, i32 0, i32 0
  %5 = load i64, ptr %4, align 8
  %6 = icmp ne i64 %5, 0
  ret i1 %6
}

; Function Attrs: mustprogress nounwind uwtable
define linkonce_odr hidden void @_ZN4llvm11LaneBitmaskC2Ev(ptr noundef nonnull align 8 dereferenceable(8) %0) unnamed_addr #0 comdat align 2 {
  %2 = alloca ptr, align 8
  store ptr %0, ptr %2, align 8
  %3 = load ptr, ptr %2, align 8
  %4 = getelementptr inbounds nuw %"struct.llvm::LaneBitmask", ptr %3, i32 0, i32 0
  store i64 0, ptr %4, align 8
  ret void
}

; Function Attrs: mustprogress nounwind uwtable
define dso_local i64 @_ZNK4llvm20RISCVGenRegisterInfo30composeSubRegIndexLaneMaskImplEjNS_11LaneBitmaskE(ptr noundef nonnull align 8 dereferenceable(308) %0, i32 noundef %1, i64 %2) unnamed_addr #0 align 2 {
  %4 = alloca %"struct.llvm::LaneBitmask", align 8
  %5 = alloca %"struct.llvm::LaneBitmask", align 8
  %6 = alloca ptr, align 8
  %7 = alloca i32, align 4
  %8 = alloca ptr, align 8
  %9 = alloca i64, align 8
  %10 = alloca i32, align 4
  %11 = alloca %"struct.llvm::LaneBitmask", align 8
  %12 = alloca %"struct.llvm::LaneBitmask", align 8
  %13 = getelementptr inbounds nuw %"struct.llvm::LaneBitmask", ptr %5, i32 0, i32 0
  store i64 %2, ptr %13, align 8
  store ptr %0, ptr %6, align 8
  store i32 %1, ptr %7, align 4
  %14 = load i32, ptr %7, align 4
  %15 = add i32 %14, -1
  store i32 %15, ptr %7, align 4
  call void @_ZN4llvm11LaneBitmaskC2Ev(ptr noundef nonnull align 8 dereferenceable(8) %4) #3
  %16 = load i32, ptr %7, align 4
  %17 = zext i32 %16 to i64
  %18 = getelementptr inbounds [52 x i8], ptr @_ZN4llvmL18CompositeSequencesE, i64 0, i64 %17
  %19 = load i8, ptr %18, align 1
  %20 = zext i8 %19 to i64
  %21 = getelementptr inbounds [22 x %"struct.llvm::MaskRolOp"], ptr @_ZN4llvmL24LaneMaskComposeSequencesE, i64 0, i64 %20
  store ptr %21, ptr %8, align 8
  br label %22

22:                                               ; preds = %58, %3
  %23 = load ptr, ptr %8, align 8
  %24 = getelementptr inbounds nuw %"struct.llvm::MaskRolOp", ptr %23, i32 0, i32 0
  %25 = call noundef zeroext i1 @_ZNK4llvm11LaneBitmask3anyEv(ptr noundef nonnull align 8 dereferenceable(8) %24)
  br i1 %25, label %26, label %61

26:                                               ; preds = %22
  %27 = call noundef i64 @_ZNK4llvm11LaneBitmask12getAsIntegerEv(ptr noundef nonnull align 8 dereferenceable(8) %5)
  %28 = load ptr, ptr %8, align 8
  %29 = getelementptr inbounds nuw %"struct.llvm::MaskRolOp", ptr %28, i32 0, i32 0
  %30 = call noundef i64 @_ZNK4llvm11LaneBitmask12getAsIntegerEv(ptr noundef nonnull align 8 dereferenceable(8) %29)
  %31 = and i64 %27, %30
  store i64 %31, ptr %9, align 8
  %32 = load ptr, ptr %8, align 8
  %33 = getelementptr inbounds nuw %"struct.llvm::MaskRolOp", ptr %32, i32 0, i32 1
  %34 = load i8, ptr %33, align 8
  %35 = zext i8 %34 to i32
  store i32 %35, ptr %10, align 4
  %36 = load i32, ptr %10, align 4
  %37 = icmp ne i32 %36, 0
  br i1 %37, label %38, label %52

38:                                               ; preds = %26
  %39 = load i64, ptr %9, align 8
  %40 = load i32, ptr %10, align 4
  %41 = zext i32 %40 to i64
  %42 = shl i64 %39, %41
  %43 = load i64, ptr %9, align 8
  %44 = load i32, ptr %10, align 4
  %45 = sub i32 64, %44
  %46 = zext i32 %45 to i64
  %47 = lshr i64 %43, %46
  %48 = or i64 %42, %47
  call void @_ZN4llvm11LaneBitmaskC2Em(ptr noundef nonnull align 8 dereferenceable(8) %11, i64 noundef %48)
  %49 = getelementptr inbounds nuw %"struct.llvm::LaneBitmask", ptr %11, i32 0, i32 0
  %50 = load i64, ptr %49, align 8
  %51 = call noundef nonnull align 8 dereferenceable(8) ptr @_ZN4llvm11LaneBitmaskoRES0_(ptr noundef nonnull align 8 dereferenceable(8) %4, i64 %50)
  br label %57

52:                                               ; preds = %26
  %53 = load i64, ptr %9, align 8
  call void @_ZN4llvm11LaneBitmaskC2Em(ptr noundef nonnull align 8 dereferenceable(8) %12, i64 noundef %53)
  %54 = getelementptr inbounds nuw %"struct.llvm::LaneBitmask", ptr %12, i32 0, i32 0
  %55 = load i64, ptr %54, align 8
  %56 = call noundef nonnull align 8 dereferenceable(8) ptr @_ZN4llvm11LaneBitmaskoRES0_(ptr noundef nonnull align 8 dereferenceable(8) %4, i64 %55)
  br label %57

57:                                               ; preds = %52, %38
  br label %58

58:                                               ; preds = %57
  %59 = load ptr, ptr %8, align 8
  %60 = getelementptr inbounds %"struct.llvm::MaskRolOp", ptr %59, i32 1
  store ptr %60, ptr %8, align 8
  br label %22, !llvm.loop !4

61:                                               ; preds = %22
  %62 = getelementptr inbounds nuw %"struct.llvm::LaneBitmask", ptr %4, i32 0, i32 0
  %63 = load i64, ptr %62, align 8
  ret i64 %63
}